; Function Attrs: mustprogress uwtable
define noundef signext range(i8 0, 2) i8 @_ZN6icu_7720TransliteratorParser15resemblesPragmaERKNS_13UnicodeStringEii(ptr noundef nonnull align 8 dereferenceable(64) %0, i32 noundef %1, i32 noundef %2) local_unnamed_addr #1 align 2 personality ptr @__gxx_personality_v0 {
  %4 = alloca %"class.icu_77::UnicodeString", align 8
  %5 = alloca %"class.icu_77::ConstChar16Ptr", align 8
  call void @llvm.lifetime.start.p0(i64 64, ptr nonnull %4) #18
  store ptr @_ZN6icu_77L10PRAGMA_USEE, ptr %5, align 8, !tbaa !55
  invoke void @_ZN6icu_7713UnicodeStringC1EaNS_14ConstChar16PtrEi(ptr noundef nonnull align 8 dereferenceable(64) %4, i8 noundef signext 1, ptr noundef nonnull %5, i32 noundef 4)
          to label %6 unwind label %12

6:                                                ; preds = %3
  %7 = invoke noundef i32 @_ZN6icu_7711ICU_Utility12parsePatternERKNS_13UnicodeStringEiiS3_Pi(ptr noundef nonnull align 8 dereferenceable(64) %0, i32 noundef %1, i32 noundef %2, ptr noundef nonnull align 8 dereferenceable(64) %4, ptr noundef null)
          to label %8 unwind label %14

8:                                                ; preds = %6
  %9 = icmp sgt i32 %7, -1
  %10 = zext i1 %9 to i8
  call void @_ZN6icu_7713UnicodeStringD1Ev(ptr noundef nonnull align 8 dereferenceable(64) %4) #18
  %11 = load ptr, ptr %5, align 8, !tbaa !55
  call void asm sideeffect "", "rm,~{memory},~{dirflag},~{fpsr},~{flags}"(ptr %11) #18, !srcloc !58
  call void @llvm.lifetime.end.p0(i64 64, ptr nonnull %4) #18
  ret i8 %10

12:                                               ; preds = %3
  %13 = landingpad { ptr, i32 }
          cleanup
  br label %16

14:                                               ; preds = %6
  %15 = landingpad { ptr, i32 }
          cleanup
  call void @_ZN6icu_7713UnicodeStringD1Ev(ptr noundef nonnull align 8 dereferenceable(64) %4) #18
  br label %16

16:                                               ; preds = %14, %12
  %.pn = phi { ptr, i32 } [ %15, %14 ], [ %13, %12 ]
  %17 = load ptr, ptr %5, align 8, !tbaa !55
  call void asm sideeffect "", "rm,~{memory},~{dirflag},~{fpsr},~{flags}"(ptr %17) #18, !srcloc !58
  call void @llvm.lifetime.end.p0(i64 64, ptr nonnull %4) #18
  resume { ptr, i32 } %.pn
}